target datalayout = "e-m:e-p270:32:32-p271:32:32-p272:64:64-i64:64-i128:128-f80:128-n8:16:32:64-S128"
target triple = "x86_64-pc-linux-gnu"

@ett_s7comm_szl_0131_0006_funkt_0 = internal global i32 0, align 4
@ett_s7comm_szl_0131_0006_funkt_1 = internal global i32 0, align 4
@ett_s7comm_szl_0131_0006_funkt_2 = internal global i32 0, align 4
@ett_s7comm_szl_0131_0006_funkt_3 = internal global i32 0, align 4
@ett_s7comm_szl_0131_0006_funkt_6 = internal global i32 0, align 4
@ett_s7comm_szl_0131_0006_funkt_7 = internal global i32 0, align 4
@ett_s7comm_szl_0131_0006_zugtyp_0 = internal global i32 0, align 4
@ett_s7comm_szl_0131_0006_zugtyp_1 = internal global i32 0, align 4
@ett_s7comm_szl_0131_0006_zugtyp_2 = internal global i32 0, align 4
@ett_s7comm_szl_0131_0006_zugtyp_3 = internal global i32 0, align 4
@ett_s7comm_szl_0131_0006_zugtyp_6 = internal global i32 0, align 4
@ett_s7comm_szl_0131_0006_zugtyp_7 = internal global i32 0, align 4
@hf_s7comm_szl_0131_0006_index = internal global i32 0, align 4
@hf_s7comm_szl_0131_0006_funkt_0 = internal global i32 0, align 4
@hf_s7comm_szl_0131_0006_funkt_1 = internal global i32 0, align 4
@hf_s7comm_szl_0131_0006_funkt_2 = internal global i32 0, align 4
@hf_s7comm_szl_0131_0006_funkt_3 = internal global i32 0, align 4
@hf_s7comm_szl_0131_0006_funkt_4 = internal global i32 0, align 4
@hf_s7comm_szl_0131_0006_funkt_5 = internal global i32 0, align 4
@hf_s7comm_szl_0131_0006_funkt_6 = internal global i32 0, align 4
@hf_s7comm_szl_0131_0006_funkt_7 = internal global i32 0, align 4
@hf_s7comm_szl_0131_0006_schnell = internal global i32 0, align 4
@hf_s7comm_szl_0131_0006_zugtyp_0 = internal global i32 0, align 4
@hf_s7comm_szl_0131_0006_zugtyp_1 = internal global i32 0, align 4
@hf_s7comm_szl_0131_0006_zugtyp_2 = internal global i32 0, align 4
@hf_s7comm_szl_0131_0006_zugtyp_3 = internal global i32 0, align 4
@hf_s7comm_szl_0131_0006_zugtyp_4 = internal global i32 0, align 4
@hf_s7comm_szl_0131_0006_zugtyp_5 = internal global i32 0, align 4
@hf_s7comm_szl_0131_0006_zugtyp_6 = internal global i32 0, align 4
@hf_s7comm_szl_0131_0006_zugtyp_7 = internal global i32 0, align 4
@hf_s7comm_szl_0131_0006_res1 = internal global i32 0, align 4
@hf_s7comm_szl_0131_0006_max_sd_empf = internal global i32 0, align 4
@hf_s7comm_szl_0131_0006_max_sd_al8p = internal global i32 0, align 4
@hf_s7comm_szl_0131_0006_max_inst = internal global i32 0, align 4
@hf_s7comm_szl_0131_0006_res2 = internal global i32 0, align 4
@hf_s7comm_szl_0131_0006_verb_proj = internal global i32 0, align 4
@hf_s7comm_szl_0131_0006_verb_prog = internal global i32 0, align 4
@hf_s7comm_szl_0131_0006_res3 = internal global i32 0, align 4

; Function Attrs: null_pointer_is_valid sspstrong uwtable
define internal i32 @s7comm_decode_szl_id_0131_idx_0006(ptr noundef %0, ptr noundef %1, i32 noundef %2) #0 {
  %4 = alloca ptr, align 8
  %5 = alloca ptr, align 8
  %6 = alloca i32, align 4
  store ptr %0, ptr %4, align 8
  store ptr %1, ptr %5, align 8
  store i32 %2, ptr %6, align 4
  %7 = load ptr, ptr %5, align 8
  %8 = load i32, ptr @hf_s7comm_szl_0131_0006_index, align 4
  %9 = load ptr, ptr %4, align 8
  %10 = load i32, ptr %6, align 4
  %11 = call ptr @proto_tree_add_item(ptr noundef %7, i32 noundef %8, ptr noundef %9, i32 noundef %10, i32 noundef 2, i32 noundef 0)
  %12 = load i32, ptr %6, align 4
  %13 = add i32 %12, 2
  store i32 %13, ptr %6, align 4
  %14 = load ptr, ptr %5, align 8
  %15 = load ptr, ptr %4, align 8
  %16 = load i32, ptr %6, align 4
  %17 = load i32, ptr @hf_s7comm_szl_0131_0006_funkt_0, align 4
  %18 = load i32, ptr @ett_s7comm_szl_0131_0006_funkt_0, align 4
  %19 = call ptr @proto_tree_add_bitmask(ptr noundef %14, ptr noundef %15, i32 noundef %16, i32 noundef %17, i32 noundef %18, ptr noundef @s7comm_szl_0131_0006_funkt_0_fields, i32 noundef 0)
  %20 = load i32, ptr %6, align 4
  %21 = add i32 %20, 1
  store i32 %21, ptr %6, align 4
  %22 = load ptr, ptr %5, align 8
  %23 = load ptr, ptr %4, align 8
  %24 = load i32, ptr %6, align 4
  %25 = load i32, ptr @hf_s7comm_szl_0131_0006_funkt_1, align 4
  %26 = load i32, ptr @ett_s7comm_szl_0131_0006_funkt_1, align 4
  %27 = call ptr @proto_tree_add_bitmask(ptr noundef %22, ptr noundef %23, i32 noundef %24, i32 noundef %25, i32 noundef %26, ptr noundef @s7comm_szl_0131_0006_funkt_1_fields, i32 noundef 0)
  %28 = load i32, ptr %6, align 4
  %29 = add i32 %28, 1
  store i32 %29, ptr %6, align 4
  %30 = load ptr, ptr %5, align 8
  %31 = load ptr, ptr %4, align 8
  %32 = load i32, ptr %6, align 4
  %33 = load i32, ptr @hf_s7comm_szl_0131_0006_funkt_2, align 4
  %34 = load i32, ptr @ett_s7comm_szl_0131_0006_funkt_2, align 4
  %35 = call ptr @proto_tree_add_bitmask(ptr noundef %30, ptr noundef %31, i32 noundef %32, i32 noundef %33, i32 noundef %34, ptr noundef @s7comm_szl_0131_0006_funkt_2_fields, i32 noundef 0)
  %36 = load i32, ptr %6, align 4
  %37 = add i32 %36, 1
  store i32 %37, ptr %6, align 4
  %38 = load ptr, ptr %5, align 8
  %39 = load ptr, ptr %4, align 8
  %40 = load i32, ptr %6, align 4
  %41 = load i32, ptr @hf_s7comm_szl_0131_0006_funkt_3, align 4
  %42 = load i32, ptr @ett_s7comm_szl_0131_0006_funkt_3, align 4
  %43 = call ptr @proto_tree_add_bitmask(ptr noundef %38, ptr noundef %39, i32 noundef %40, i32 noundef %41, i32 noundef %42, ptr noundef @s7comm_szl_0131_0006_funkt_3_fields, i32 noundef 0)
  %44 = load i32, ptr %6, align 4
  %45 = add i32 %44, 1
  store i32 %45, ptr %6, align 4
  %46 = load ptr, ptr %5, align 8
  %47 = load i32, ptr @hf_s7comm_szl_0131_0006_funkt_4, align 4
  %48 = load ptr, ptr %4, align 8
  %49 = load i32, ptr %6, align 4
  %50 = call ptr @proto_tree_add_item(ptr noundef %46, i32 noundef %47, ptr noundef %48, i32 noundef %49, i32 noundef 1, i32 noundef 0)
  %51 = load i32, ptr %6, align 4
  %52 = add i32 %51, 1
  store i32 %52, ptr %6, align 4
  %53 = load ptr, ptr %5, align 8
  %54 = load i32, ptr @hf_s7comm_szl_0131_0006_funkt_5, align 4
  %55 = load ptr, ptr %4, align 8
  %56 = load i32, ptr %6, align 4
  %57 = call ptr @proto_tree_add_item(ptr noundef %53, i32 noundef %54, ptr noundef %55, i32 noundef %56, i32 noundef 1, i32 noundef 0)
  %58 = load i32, ptr %6, align 4
  %59 = add i32 %58, 1
  store i32 %59, ptr %6, align 4
  %60 = load ptr, ptr %5, align 8
  %61 = load ptr, ptr %4, align 8
  %62 = load i32, ptr %6, align 4
  %63 = load i32, ptr @hf_s7comm_szl_0131_0006_funkt_6, align 4
  %64 = load i32, ptr @ett_s7comm_szl_0131_0006_funkt_6, align 4
  %65 = call ptr @proto_tree_add_bitmask(ptr noundef %60, ptr noundef %61, i32 noundef %62, i32 noundef %63, i32 noundef %64, ptr noundef @s7comm_szl_0131_0006_funkt_6_fields, i32 noundef 0)
  %66 = load i32, ptr %6, align 4
  %67 = add i32 %66, 1
  store i32 %67, ptr %6, align 4
  %68 = load ptr, ptr %5, align 8
  %69 = load ptr, ptr %4, align 8
  %70 = load i32, ptr %6, align 4
  %71 = load i32, ptr @hf_s7comm_szl_0131_0006_funkt_7, align 4
  %72 = load i32, ptr @ett_s7comm_szl_0131_0006_funkt_7, align 4
  %73 = call ptr @proto_tree_add_bitmask(ptr noundef %68, ptr noundef %69, i32 noundef %70, i32 noundef %71, i32 noundef %72, ptr noundef @s7comm_szl_0131_0006_funkt_7_fields, i32 noundef 0)
  %74 = load i32, ptr %6, align 4
  %75 = add i32 %74, 1
  store i32 %75, ptr %6, align 4
  %76 = load ptr, ptr %5, align 8
  %77 = load i32, ptr @hf_s7comm_szl_0131_0006_schnell, align 4
  %78 = load ptr, ptr %4, align 8
  %79 = load i32, ptr %6, align 4
  %80 = call ptr @proto_tree_add_item(ptr noundef %76, i32 noundef %77, ptr noundef %78, i32 noundef %79, i32 noundef 1, i32 noundef 0)
  %81 = load i32, ptr %6, align 4
  %82 = add i32 %81, 1
  store i32 %82, ptr %6, align 4
  %83 = load ptr, ptr %5, align 8
  %84 = load ptr, ptr %4, align 8
  %85 = load i32, ptr %6, align 4
  %86 = load i32, ptr @hf_s7comm_szl_0131_0006_zugtyp_0, align 4
  %87 = load i32, ptr @ett_s7comm_szl_0131_0006_zugtyp_0, align 4
  %88 = call ptr @proto_tree_add_bitmask(ptr noundef %83, ptr noundef %84, i32 noundef %85, i32 noundef %86, i32 noundef %87, ptr noundef @s7comm_szl_0131_0006_zugtyp_0_fields, i32 noundef 0)
  %89 = load i32, ptr %6, align 4
  %90 = add i32 %89, 1
  store i32 %90, ptr %6, align 4
  %91 = load ptr, ptr %5, align 8
  %92 = load ptr, ptr %4, align 8
  %93 = load i32, ptr %6, align 4
  %94 = load i32, ptr @hf_s7comm_szl_0131_0006_zugtyp_1, align 4
  %95 = load i32, ptr @ett_s7comm_szl_0131_0006_zugtyp_1, align 4
  %96 = call ptr @proto_tree_add_bitmask(ptr noundef %91, ptr noundef %92, i32 noundef %93, i32 noundef %94, i32 noundef %95, ptr noundef @s7comm_szl_0131_0006_zugtyp_1_fields, i32 noundef 0)
  %97 = load i32, ptr %6, align 4
  %98 = add i32 %97, 1
  store i32 %98, ptr %6, align 4
  %99 = load ptr, ptr %5, align 8
  %100 = load ptr, ptr %4, align 8
  %101 = load i32, ptr %6, align 4
  %102 = load i32, ptr @hf_s7comm_szl_0131_0006_zugtyp_2, align 4
  %103 = load i32, ptr @ett_s7comm_szl_0131_0006_zugtyp_2, align 4
  %104 = call ptr @proto_tree_add_bitmask(ptr noundef %99, ptr noundef %100, i32 noundef %101, i32 noundef %102, i32 noundef %103, ptr noundef @s7comm_szl_0131_0006_zugtyp_2_fields, i32 noundef 0)
  %105 = load i32, ptr %6, align 4
  %106 = add i32 %105, 1
  store i32 %106, ptr %6, align 4
  %107 = load ptr, ptr %5, align 8
  %108 = load ptr, ptr %4, align 8
  %109 = load i32, ptr %6, align 4
  %110 = load i32, ptr @hf_s7comm_szl_0131_0006_zugtyp_3, align 4
  %111 = load i32, ptr @ett_s7comm_szl_0131_0006_zugtyp_3, align 4
  %112 = call ptr @proto_tree_add_bitmask(ptr noundef %107, ptr noundef %108, i32 noundef %109, i32 noundef %110, i32 noundef %111, ptr noundef @s7comm_szl_0131_0006_zugtyp_3_fields, i32 noundef 0)
  %113 = load i32, ptr %6, align 4
  %114 = add i32 %113, 1
  store i32 %114, ptr %6, align 4
  %115 = load ptr, ptr %5, align 8
  %116 = load i32, ptr @hf_s7comm_szl_0131_0006_zugtyp_4, align 4
  %117 = load ptr, ptr %4, align 8
  %118 = load i32, ptr %6, align 4
  %119 = call ptr @proto_tree_add_item(ptr noundef %115, i32 noundef %116, ptr noundef %117, i32 noundef %118, i32 noundef 1, i32 noundef 0)
  %120 = load i32, ptr %6, align 4
  %121 = add i32 %120, 1
  store i32 %121, ptr %6, align 4
  %122 = load ptr, ptr %5, align 8
  %123 = load i32, ptr @hf_s7comm_szl_0131_0006_zugtyp_5, align 4
  %124 = load ptr, ptr %4, align 8
  %125 = load i32, ptr %6, align 4
  %126 = call ptr @proto_tree_add_item(ptr noundef %122, i32 noundef %123, ptr noundef %124, i32 noundef %125, i32 noundef 1, i32 noundef 0)
  %127 = load i32, ptr %6, align 4
  %128 = add i32 %127, 1
  store i32 %128, ptr %6, align 4
  %129 = load ptr, ptr %5, align 8
  %130 = load ptr, ptr %4, align 8
  %131 = load i32, ptr %6, align 4
  %132 = load i32, ptr @hf_s7comm_szl_0131_0006_zugtyp_6, align 4
  %133 = load i32, ptr @ett_s7comm_szl_0131_0006_zugtyp_6, align 4
  %134 = call ptr @proto_tree_add_bitmask(ptr noundef %129, ptr noundef %130, i32 noundef %131, i32 noundef %132, i32 noundef %133, ptr noundef @s7comm_szl_0131_0006_zugtyp_6_fields, i32 noundef 0)
  %135 = load i32, ptr %6, align 4
  %136 = add i32 %135, 1
  store i32 %136, ptr %6, align 4
  %137 = load ptr, ptr %5, align 8
  %138 = load ptr, ptr %4, align 8
  %139 = load i32, ptr %6, align 4
  %140 = load i32, ptr @hf_s7comm_szl_0131_0006_zugtyp_7, align 4
  %141 = load i32, ptr @ett_s7comm_szl_0131_0006_zugtyp_7, align 4
  %142 = call ptr @proto_tree_add_bitmask(ptr noundef %137, ptr noundef %138, i32 noundef %139, i32 noundef %140, i32 noundef %141, ptr noundef @s7comm_szl_0131_0006_zugtyp_7_fields, i32 noundef 0)
  %143 = load i32, ptr %6, align 4
  %144 = add i32 %143, 1
  store i32 %144, ptr %6, align 4
  %145 = load ptr, ptr %5, align 8
  %146 = load i32, ptr @hf_s7comm_szl_0131_0006_res1, align 4
  %147 = load ptr, ptr %4, align 8
  %148 = load i32, ptr %6, align 4
  %149 = call ptr @proto_tree_add_item(ptr noundef %145, i32 noundef %146, ptr noundef %147, i32 noundef %148, i32 noundef 1, i32 noundef 0)
  %150 = load i32, ptr %6, align 4
  %151 = add i32 %150, 1
  store i32 %151, ptr %6, align 4
  %152 = load ptr, ptr %5, align 8
  %153 = load i32, ptr @hf_s7comm_szl_0131_0006_max_sd_empf, align 4
  %154 = load ptr, ptr %4, align 8
  %155 = load i32, ptr %6, align 4
  %156 = call ptr @proto_tree_add_item(ptr noundef %152, i32 noundef %153, ptr noundef %154, i32 noundef %155, i32 noundef 2, i32 noundef 0)
  %157 = load i32, ptr %6, align 4
  %158 = add i32 %157, 2
  store i32 %158, ptr %6, align 4
  %159 = load ptr, ptr %5, align 8
  %160 = load i32, ptr @hf_s7comm_szl_0131_0006_max_sd_al8p, align 4
  %161 = load ptr, ptr %4, align 8
  %162 = load i32, ptr %6, align 4
  %163 = call ptr @proto_tree_add_item(ptr noundef %159, i32 noundef %160, ptr noundef %161, i32 noundef %162, i32 noundef 2, i32 noundef 0)
  %164 = load i32, ptr %6, align 4
  %165 = add i32 %164, 2
  store i32 %165, ptr %6, align 4
  %166 = load ptr, ptr %5, align 8
  %167 = load i32, ptr @hf_s7comm_szl_0131_0006_max_inst, align 4
  %168 = load ptr, ptr %4, align 8
  %169 = load i32, ptr %6, align 4
  %170 = call ptr @proto_tree_add_item(ptr noundef %166, i32 noundef %167, ptr noundef %168, i32 noundef %169, i32 noundef 2, i32 noundef 0)
  %171 = load i32, ptr %6, align 4
  %172 = add i32 %171, 2
  store i32 %172, ptr %6, align 4
  %173 = load ptr, ptr %5, align 8
  %174 = load i32, ptr @hf_s7comm_szl_0131_0006_res2, align 4
  %175 = load ptr, ptr %4, align 8
  %176 = load i32, ptr %6, align 4
  %177 = call ptr @proto_tree_add_item(ptr noundef %173, i32 noundef %174, ptr noundef %175, i32 noundef %176, i32 noundef 2, i32 noundef 0)
  %178 = load i32, ptr %6, align 4
  %179 = add i32 %178, 2
  store i32 %179, ptr %6, align 4
  %180 = load ptr, ptr %5, align 8
  %181 = load i32, ptr @hf_s7comm_szl_0131_0006_verb_proj, align 4
  %182 = load ptr, ptr %4, align 8
  %183 = load i32, ptr %6, align 4
  %184 = call ptr @proto_tree_add_item(ptr noundef %180, i32 noundef %181, ptr noundef %182, i32 noundef %183, i32 noundef 1, i32 noundef 0)
  %185 = load i32, ptr %6, align 4
  %186 = add i32 %185, 1
  store i32 %186, ptr %6, align 4
  %187 = load ptr, ptr %5, align 8
  %188 = load i32, ptr @hf_s7comm_szl_0131_0006_verb_prog, align 4
  %189 = load ptr, ptr %4, align 8
  %190 = load i32, ptr %6, align 4
  %191 = call ptr @proto_tree_add_item(ptr noundef %187, i32 noundef %188, ptr noundef %189, i32 noundef %190, i32 noundef 1, i32 noundef 0)
  %192 = load i32, ptr %6, align 4
  %193 = add i32 %192, 1
  store i32 %193, ptr %6, align 4
  %194 = load ptr, ptr %5, align 8
  %195 = load i32, ptr @hf_s7comm_szl_0131_0006_res3, align 4
  %196 = load ptr, ptr %4, align 8
  %197 = load i32, ptr %6, align 4
  %198 = call ptr @proto_tree_add_item(ptr noundef %194, i32 noundef %195, ptr noundef %196, i32 noundef %197, i32 noundef 10, i32 noundef 0)
  %199 = load i32, ptr %6, align 4
  %200 = add i32 %199, 10
  store i32 %200, ptr %6, align 4
  %201 = load i32, ptr %6, align 4
  ret i32 %201
}