; Function Attrs: null_pointer_is_valid sspstrong uwtable
define internal fastcc noundef i32 @s7comm_decode_szl_id_0131_idx_0006(ptr noundef %0, ptr noundef %1, i32 noundef %2) unnamed_addr #0 {
  %4 = load i32, ptr @hf_s7comm_szl_0131_0006_index, align 4
  %5 = tail call ptr @proto_tree_add_item(ptr noundef %1, i32 noundef %4, ptr noundef %0, i32 noundef %2, i32 noundef 2, i32 noundef 0)
  %6 = add i32 %2, 2
  %7 = load i32, ptr @hf_s7comm_szl_0131_0006_funkt_0, align 4
  %8 = load i32, ptr @ett_s7comm_szl_0131_0006_funkt_0, align 4
  %9 = tail call ptr @proto_tree_add_bitmask(ptr noundef %1, ptr noundef %0, i32 noundef %6, i32 noundef %7, i32 noundef %8, ptr noundef nonnull @s7comm_szl_0131_0006_funkt_0_fields, i32 noundef 0)
  %10 = add i32 %2, 3
  %11 = load i32, ptr @hf_s7comm_szl_0131_0006_funkt_1, align 4
  %12 = load i32, ptr @ett_s7comm_szl_0131_0006_funkt_1, align 4
  %13 = tail call ptr @proto_tree_add_bitmask(ptr noundef %1, ptr noundef %0, i32 noundef %10, i32 noundef %11, i32 noundef %12, ptr noundef nonnull @s7comm_szl_0131_0006_funkt_1_fields, i32 noundef 0)
  %14 = add i32 %2, 4
  %15 = load i32, ptr @hf_s7comm_szl_0131_0006_funkt_2, align 4
  %16 = load i32, ptr @ett_s7comm_szl_0131_0006_funkt_2, align 4
  %17 = tail call ptr @proto_tree_add_bitmask(ptr noundef %1, ptr noundef %0, i32 noundef %14, i32 noundef %15, i32 noundef %16, ptr noundef nonnull @s7comm_szl_0131_0006_funkt_2_fields, i32 noundef 0)
  %18 = add i32 %2, 5
  %19 = load i32, ptr @hf_s7comm_szl_0131_0006_funkt_3, align 4
  %20 = load i32, ptr @ett_s7comm_szl_0131_0006_funkt_3, align 4
  %21 = tail call ptr @proto_tree_add_bitmask(ptr noundef %1, ptr noundef %0, i32 noundef %18, i32 noundef %19, i32 noundef %20, ptr noundef nonnull @s7comm_szl_0131_0006_funkt_3_fields, i32 noundef 0)
  %22 = add i32 %2, 6
  %23 = load i32, ptr @hf_s7comm_szl_0131_0006_funkt_4, align 4
  %24 = tail call ptr @proto_tree_add_item(ptr noundef %1, i32 noundef %23, ptr noundef %0, i32 noundef %22, i32 noundef 1, i32 noundef 0)
  %25 = add i32 %2, 7
  %26 = load i32, ptr @hf_s7comm_szl_0131_0006_funkt_5, align 4
  %27 = tail call ptr @proto_tree_add_item(ptr noundef %1, i32 noundef %26, ptr noundef %0, i32 noundef %25, i32 noundef 1, i32 noundef 0)
  %28 = add i32 %2, 8
  %29 = load i32, ptr @hf_s7comm_szl_0131_0006_funkt_6, align 4
  %30 = load i32, ptr @ett_s7comm_szl_0131_0006_funkt_6, align 4
  %31 = tail call ptr @proto_tree_add_bitmask(ptr noundef %1, ptr noundef %0, i32 noundef %28, i32 noundef %29, i32 noundef %30, ptr noundef nonnull @s7comm_szl_0131_0006_funkt_6_fields, i32 noundef 0)
  %32 = add i32 %2, 9
  %33 = load i32, ptr @hf_s7comm_szl_0131_0006_funkt_7, align 4
  %34 = load i32, ptr @ett_s7comm_szl_0131_0006_funkt_7, align 4
  %35 = tail call ptr @proto_tree_add_bitmask(ptr noundef %1, ptr noundef %0, i32 noundef %32, i32 noundef %33, i32 noundef %34, ptr noundef nonnull @s7comm_szl_0131_0006_funkt_7_fields, i32 noundef 0)
  %36 = add i32 %2, 10
  %37 = load i32, ptr @hf_s7comm_szl_0131_0006_schnell, align 4
  %38 = tail call ptr @proto_tree_add_item(ptr noundef %1, i32 noundef %37, ptr noundef %0, i32 noundef %36, i32 noundef 1, i32 noundef 0)
  %39 = add i32 %2, 11
  %40 = load i32, ptr @hf_s7comm_szl_0131_0006_zugtyp_0, align 4
  %41 = load i32, ptr @ett_s7comm_szl_0131_0006_zugtyp_0, align 4
  %42 = tail call ptr @proto_tree_add_bitmask(ptr noundef %1, ptr noundef %0, i32 noundef %39, i32 noundef %40, i32 noundef %41, ptr noundef nonnull @s7comm_szl_0131_0006_zugtyp_0_fields, i32 noundef 0)
  %43 = add i32 %2, 12
  %44 = load i32, ptr @hf_s7comm_szl_0131_0006_zugtyp_1, align 4
  %45 = load i32, ptr @ett_s7comm_szl_0131_0006_zugtyp_1, align 4
  %46 = tail call ptr @proto_tree_add_bitmask(ptr noundef %1, ptr noundef %0, i32 noundef %43, i32 noundef %44, i32 noundef %45, ptr noundef nonnull @s7comm_szl_0131_0006_zugtyp_1_fields, i32 noundef 0)
  %47 = add i32 %2, 13
  %48 = load i32, ptr @hf_s7comm_szl_0131_0006_zugtyp_2, align 4
  %49 = load i32, ptr @ett_s7comm_szl_0131_0006_zugtyp_2, align 4
  %50 = tail call ptr @proto_tree_add_bitmask(ptr noundef %1, ptr noundef %0, i32 noundef %47, i32 noundef %48, i32 noundef %49, ptr noundef nonnull @s7comm_szl_0131_0006_zugtyp_2_fields, i32 noundef 0)
  %51 = add i32 %2, 14
  %52 = load i32, ptr @hf_s7comm_szl_0131_0006_zugtyp_3, align 4
  %53 = load i32, ptr @ett_s7comm_szl_0131_0006_zugtyp_3, align 4
  %54 = tail call ptr @proto_tree_add_bitmask(ptr noundef %1, ptr noundef %0, i32 noundef %51, i32 noundef %52, i32 noundef %53, ptr noundef nonnull @s7comm_szl_0131_0006_zugtyp_3_fields, i32 noundef 0)
  %55 = add i32 %2, 15
  %56 = load i32, ptr @hf_s7comm_szl_0131_0006_zugtyp_4, align 4
  %57 = tail call ptr @proto_tree_add_item(ptr noundef %1, i32 noundef %56, ptr noundef %0, i32 noundef %55, i32 noundef 1, i32 noundef 0)
  %58 = add i32 %2, 16
  %59 = load i32, ptr @hf_s7comm_szl_0131_0006_zugtyp_5, align 4
  %60 = tail call ptr @proto_tree_add_item(ptr noundef %1, i32 noundef %59, ptr noundef %0, i32 noundef %58, i32 noundef 1, i32 noundef 0)
  %61 = add i32 %2, 17
  %62 = load i32, ptr @hf_s7comm_szl_0131_0006_zugtyp_6, align 4
  %63 = load i32, ptr @ett_s7comm_szl_0131_0006_zugtyp_6, align 4
  %64 = tail call ptr @proto_tree_add_bitmask(ptr noundef %1, ptr noundef %0, i32 noundef %61, i32 noundef %62, i32 noundef %63, ptr noundef nonnull @s7comm_szl_0131_0006_zugtyp_6_fields, i32 noundef 0)
  %65 = add i32 %2, 18
  %66 = load i32, ptr @hf_s7comm_szl_0131_0006_zugtyp_7, align 4
  %67 = load i32, ptr @ett_s7comm_szl_0131_0006_zugtyp_7, align 4
  %68 = tail call ptr @proto_tree_add_bitmask(ptr noundef %1, ptr noundef %0, i32 noundef %65, i32 noundef %66, i32 noundef %67, ptr noundef nonnull @s7comm_szl_0131_0006_zugtyp_7_fields, i32 noundef 0)
  %69 = add i32 %2, 19
  %70 = load i32, ptr @hf_s7comm_szl_0131_0006_res1, align 4
  %71 = tail call ptr @proto_tree_add_item(ptr noundef %1, i32 noundef %70, ptr noundef %0, i32 noundef %69, i32 noundef 1, i32 noundef 0)
  %72 = add i32 %2, 20
  %73 = load i32, ptr @hf_s7comm_szl_0131_0006_max_sd_empf, align 4
  %74 = tail call ptr @proto_tree_add_item(ptr noundef %1, i32 noundef %73, ptr noundef %0, i32 noundef %72, i32 noundef 2, i32 noundef 0)
  %75 = add i32 %2, 22
  %76 = load i32, ptr @hf_s7comm_szl_0131_0006_max_sd_al8p, align 4
  %77 = tail call ptr @proto_tree_add_item(ptr noundef %1, i32 noundef %76, ptr noundef %0, i32 noundef %75, i32 noundef 2, i32 noundef 0)
  %78 = add i32 %2, 24
  %79 = load i32, ptr @hf_s7comm_szl_0131_0006_max_inst, align 4
  %80 = tail call ptr @proto_tree_add_item(ptr noundef %1, i32 noundef %79, ptr noundef %0, i32 noundef %78, i32 noundef 2, i32 noundef 0)
  %81 = add i32 %2, 26
  %82 = load i32, ptr @hf_s7comm_szl_0131_0006_res2, align 4
  %83 = tail call ptr @proto_tree_add_item(ptr noundef %1, i32 noundef %82, ptr noundef %0, i32 noundef %81, i32 noundef 2, i32 noundef 0)
  %84 = add i32 %2, 28
  %85 = load i32, ptr @hf_s7comm_szl_0131_0006_verb_proj, align 4
  %86 = tail call ptr @proto_tree_add_item(ptr noundef %1, i32 noundef %85, ptr noundef %0, i32 noundef %84, i32 noundef 1, i32 noundef 0)
  %87 = add i32 %2, 29
  %88 = load i32, ptr @hf_s7comm_szl_0131_0006_verb_prog, align 4
  %89 = tail call ptr @proto_tree_add_item(ptr noundef %1, i32 noundef %88, ptr noundef %0, i32 noundef %87, i32 noundef 1, i32 noundef 0)
  %90 = add i32 %2, 30
  %91 = load i32, ptr @hf_s7comm_szl_0131_0006_res3, align 4
  %92 = tail call ptr @proto_tree_add_item(ptr noundef %1, i32 noundef %91, ptr noundef %0, i32 noundef %90, i32 noundef 10, i32 noundef 0)
  %93 = add i32 %2, 40
  ret i32 %93
}